Certificate:
    Data:
        Version: 3 (0x2)
        Serial Number:
            39:24:7d:29:f0:ac:87:d4:31:bf:1c:a6:a9:0f:05:8f:5e:76:39:e0
        Signature Algorithm: ecdsa-with-SHA512
        Issuer: C=DE, ST=Bavaria, O=Test-Organization, OU=Test-Organization-CA, CN=Test-Organization-Root-CA
        Validity
            Not Before: Jan  1 01:01:01 2023 GMT
            Not After : Jan  1 01:01:01 2033 GMT
        Subject: C=DE, ST=Bavaria, O=Test-Organization, OU=Test-Organization-CA, CN=Test-Organization-Intermediate-CA
        Subject Public Key Info:
            Public Key Algorithm: id-ecPublicKey
                Public-Key: (384 bit)
                pub:
                    04:61:5f:85:2f:91:42:93:79:84:5e:d1:4f:eb:fc:
                    1e:f4:00:b1:94:f0:bf:f0:47:6a:83:c7:87:b9:49:
                    b5:b2:25:f6:59:a5:3d:90:93:f4:14:14:dd:8c:ae:
                    de:b2:a1:d3:ab:3e:a5:b6:91:85:a4:4c:b3:21:1a:
                    b1:15:0f:0b:b2:c1:1f:a8:97:84:a0:d9:ca:20:3f:
                    ce:ae:a6:26:73:5a:fe:1a:d4:9f:b4:c9:21:54:c8:
                    10:ce:12:38:9c:99:fa
                ASN1 OID: secp384r1
                NIST CURVE: P-384
        X509v3 extensions:
            X509v3 Basic Constraints: critical
                CA:TRUE, pathlen:0
            X509v3 Key Usage: critical
                Digital Signature, Certificate Sign, CRL Sign
            X509v3 Subject Key Identifier: 
                F7:2A:E2:41:32:04:04:71:8A:E6:23:54:F2:18:E6:F4:3F:6F:CF:DF
            X509v3 Authority Key Identifier: 
                BC:85:12:39:DD:25:DA:83:42:6D:26:30:11:E6:CE:0A:3F:CD:11:FE
    Signature Algorithm: ecdsa-with-SHA512
    Signature Value:
        30:65:02:30:59:48:e8:9d:03:95:74:f5:3a:7f:43:f8:c3:eb:
        cf:fe:5c:82:9c:c3:18:2e:ae:1f:92:ec:eb:85:8c:81:9d:0c:
        6c:1e:bb:07:11:f2:89:61:31:91:26:c3:c5:d6:28:34:02:31:
        00:b4:17:ea:3a:d7:f1:31:b1:3a:d8:dd:2e:d7:68:9f:ae:d8:
        f0:a9:80:10:7e:f8:39:b7:74:5c:b0:39:69:1e:dc:93:0c:fc:
        dd:a0:26:65:fb:5d:80:56:b0:f7:40:20:92
-----BEGIN CERTIFICATE-----
MIICqjCCAjCgAwIBAgIUOSR9KfCsh9QxvxymqQ8Fj152OeAwCgYIKoZIzj0EAwQw
fjELMAkGA1UEBhMCREUxEDAOBgNVBAgMB0JhdmFyaWExGjAYBgNVBAoMEVRlc3Qt
T3JnYW5pemF0aW9uMR0wGwYDVQQLDBRUZXN0LU9yZ2FuaXphdGlvbi1DQTEiMCAG
A1UEAwwZVGVzdC1Pcmdhbml6YXRpb24tUm9vdC1DQTAeFw0yMzAxMDEwMTAxMDFa
Fw0zMzAxMDEwMTAxMDFaMIGGMQswCQYDVQQGEwJERTEQMA4GA1UECAwHQmF2YXJp
YTEaMBgGA1UECgwRVGVzdC1Pcmdhbml6YXRpb24xHTAbBgNVBAsMFFRlc3QtT3Jn
YW5pemF0aW9uLUNBMSowKAYDVQQDDCFUZXN0LU9yZ2FuaXphdGlvbi1JbnRlcm1l
ZGlhdGUtQ0EwdjAQBgcqhkjOPQIBBgUrgQQAIgNiAARhX4UvkUKTeYRe0U/r/B70
ALGU8L/wR2qDx4e5SbWyJfZZpT2Qk/QUFN2Mrt6yodOrPqW2kYWkTLMhGrEVDwuy
wR+ol4Sg2cogP86upiZzWv4a1J+0ySFUyBDOEjicmfqjZjBkMBIGA1UdEwEB/wQI
MAYBAf8CAQAwDgYDVR0PAQH/BAQDAgGGMB0GA1UdDgQWBBT3KuJBMgQEcYrmI1Ty
GOb0P2/P3zAfBgNVHSMEGDAWgBS8hRI53SXag0JtJjAR5s4KP80R/jAKBggqhkjO
PQQDBANoADBlAjBZSOidA5V09Tp/Q/jD68/+XIKcwxgurh+S7OuFjIGdDGweuwcR
8olhMZEmw8XWKDQCMQC0F+o61/ExsTrY3S7XaJ+u2PCpgBB++Dm3dFywOWke3JMM
/N2gJmX7XYBWsPdAIJI=
-----END CERTIFICATE-----
