Certificate:
    Data:
        Version: 3 (0x2)
        Serial Number:
            2a:62:e0:d0:8e:e1:10:06:87:99:4b:de:a8:51:85:8f:ab:80:71:7d
        Signature Algorithm: sha256WithRSAEncryption
        Issuer: C=DE, ST=Bavaria, O=Test-Organization, OU=Test-Organization-CA, CN=Test-Organization-Root-CA
        Validity
            Not Before: Jan  1 01:01:01 2023 GMT
            Not After : Jan  1 01:01:01 2033 GMT
        Subject: C=DE, ST=Bavaria, O=Test-Organization, OU=Test-Organization-CA, CN=Test-Organization-Root-CA
        Subject Public Key Info:
            Public Key Algorithm: rsaEncryption
                Public-Key: (3072 bit)
                Modulus:
                    00:a7:c4:c0:aa:aa:6b:4e:3f:e1:30:f2:ad:42:8f:
                    7e:07:52:02:52:98:54:5b:53:05:62:f4:bf:13:c5:
                    b3:a5:43:47:bd:85:4b:3a:02:f9:6a:39:50:11:43:
                    da:c2:1c:d5:77:84:09:cb:6d:45:cb:f6:f0:64:8e:
                    ed:be:79:fc:4e:a1:b0:3b:45:ce:53:bf:d7:c4:ed:
                    67:6c:c3:0a:7b:f0:48:65:98:75:78:e6:e1:cd:53:
                    27:fd:7a:2a:49:93:5e:61:db:64:01:c0:8d:b4:a1:
                    14:bd:8d:05:42:72:6c:e3:60:64:dd:ec:3c:be:b6:
                    eb:8f:9d:6a:ca:32:8e:02:30:9a:8f:d5:a2:2c:dc:
                    65:30:84:c4:0c:36:56:10:36:eb:5c:4c:49:0a:ab:
                    c1:8f:2e:ad:ec:d9:19:1c:b7:33:3c:92:31:87:09:
                    49:ed:0a:bc:dd:52:44:3a:17:8d:91:0a:85:18:99:
                    88:bd:98:92:5d:d9:70:25:36:28:66:3a:30:77:aa:
                    18:eb:a0:9f:43:82:89:84:84:fa:d0:91:ae:3d:11:
                    69:98:cf:b2:bf:b0:e5:23:f6:8c:1c:e2:41:72:10:
                    f8:bc:6d:53:04:d4:3b:44:69:c2:06:86:a6:6b:78:
                    ee:ba:f0:ee:fd:a4:31:09:4c:43:60:28:ec:24:ef:
                    69:3c:c3:99:11:96:47:c1:61:72:4c:05:1b:21:77:
                    04:ac:8f:ab:2b:66:62:8f:dc:2f:1c:88:98:e9:d4:
                    52:5d:59:99:51:6a:88:bb:3f:6d:bb:d9:00:71:6c:
                    65:48:a1:e9:35:03:45:10:f0:7b:fb:98:0e:c6:0e:
                    04:5d:65:38:01:61:2d:00:ef:11:1a:28:a9:a2:b6:
                    eb:89:cf:4f:5a:38:98:88:7c:23:8e:21:7b:c2:09:
                    76:47:85:f0:c1:04:3e:60:1e:ad:df:90:74:3e:6e:
                    b4:5d:e8:65:c3:e7:a4:91:aa:1c:ce:d4:66:ab:43:
                    b2:17:5a:90:56:e0:d2:3e:33:ab
                Exponent: 65537 (0x10001)
        X509v3 extensions:
            X509v3 Basic Constraints: critical
                CA:TRUE, pathlen:1
            X509v3 Key Usage: critical
                Digital Signature, Certificate Sign, CRL Sign
            X509v3 Subject Key Identifier: 
                38:DB:29:EB:76:97:78:7E:69:96:00:B5:4C:59:03:20:5F:96:F8:80
            X509v3 Authority Key Identifier: 
                38:DB:29:EB:76:97:78:7E:69:96:00:B5:4C:59:03:20:5F:96:F8:80
    Signature Algorithm: sha256WithRSAEncryption
    Signature Value:
        14:3d:ae:51:87:0e:e8:84:98:51:e5:87:43:79:bd:b7:d6:2e:
        68:f6:cd:8b:85:3a:c4:ae:a6:9c:2e:51:6f:c4:da:02:9b:87:
        a7:74:e5:aa:3e:79:c7:8b:b4:a1:95:84:96:f2:24:ff:f1:ff:
        1a:05:d5:2b:d8:a0:78:c1:4e:5d:22:db:ac:4c:3c:15:1c:21:
        c8:8f:68:73:67:bc:64:7c:2f:44:c8:ad:e5:07:81:fc:6a:52:
        68:35:c6:63:28:37:e1:35:ba:6e:fe:59:a2:ab:69:df:2d:ce:
        5b:6e:1b:0a:b8:a2:22:b6:3d:07:81:c3:b6:0b:dd:45:7b:0e:
        96:11:c5:df:5b:01:bf:98:32:7f:76:96:40:74:71:01:78:d3:
        af:1a:d2:7f:8e:26:f4:45:c8:b2:0d:c9:6b:5d:25:58:2d:10:
        1e:cd:2c:3d:86:2e:2d:24:7d:09:75:fa:4d:9a:a2:cf:db:2c:
        d5:20:e0:92:50:57:1e:99:6c:61:59:a7:88:01:c5:13:3f:95:
        0e:dc:5c:04:60:fc:68:c8:9d:fc:2e:13:30:c9:cb:ec:02:84:
        d3:31:cf:75:2b:a8:f1:29:07:9c:35:72:28:f9:d7:e0:5f:c1:
        37:0e:47:d8:32:f8:e6:05:af:47:18:fd:f3:05:ee:b6:96:4c:
        e6:03:02:b1:7e:7c:93:9e:12:86:0c:af:ac:24:dc:c0:4f:ea:
        e4:a0:f9:fa:eb:a3:5d:96:2f:37:dc:b5:69:fc:75:e9:3e:f6:
        07:70:b6:de:d4:8c:0e:3c:00:6c:77:9b:f3:74:a2:b8:26:06:
        d7:18:a7:05:89:c4:fa:36:0a:66:d4:a5:b7:6d:36:41:8c:75:
        2a:61:e4:b9:3f:a3:f5:b0:8c:66:79:d6:9f:be:15:fc:9f:95:
        03:53:4b:9f:08:93:9e:85:fd:76:47:d1:4b:d9:1f:c3:ec:68:
        be:ac:19:57:30:01:59:79:f9:33:b7:b7:6c:52:cb:8b:0e:2b:
        42:1a:a8:5a:6c:4b
-----BEGIN CERTIFICATE-----
MIIE8DCCA1igAwIBAgIUKmLg0I7hEAaHmUveqFGFj6uAcX0wDQYJKoZIhvcNAQEL
BQAwfjELMAkGA1UEBhMCREUxEDAOBgNVBAgMB0JhdmFyaWExGjAYBgNVBAoMEVRl
c3QtT3JnYW5pemF0aW9uMR0wGwYDVQQLDBRUZXN0LU9yZ2FuaXphdGlvbi1DQTEi
MCAGA1UEAwwZVGVzdC1Pcmdhbml6YXRpb24tUm9vdC1DQTAeFw0yMzAxMDEwMTAx
MDFaFw0zMzAxMDEwMTAxMDFaMH4xCzAJBgNVBAYTAkRFMRAwDgYDVQQIDAdCYXZh
cmlhMRowGAYDVQQKDBFUZXN0LU9yZ2FuaXphdGlvbjEdMBsGA1UECwwUVGVzdC1P
cmdhbml6YXRpb24tQ0ExIjAgBgNVBAMMGVRlc3QtT3JnYW5pemF0aW9uLVJvb3Qt
Q0EwggGiMA0GCSqGSIb3DQEBAQUAA4IBjwAwggGKAoIBgQCnxMCqqmtOP+Ew8q1C
j34HUgJSmFRbUwVi9L8TxbOlQ0e9hUs6AvlqOVARQ9rCHNV3hAnLbUXL9vBkju2+
efxOobA7Rc5Tv9fE7Wdswwp78EhlmHV45uHNUyf9eipJk15h22QBwI20oRS9jQVC
cmzjYGTd7Dy+tuuPnWrKMo4CMJqP1aIs3GUwhMQMNlYQNutcTEkKq8GPLq3s2Rkc
tzM8kjGHCUntCrzdUkQ6F42RCoUYmYi9mJJd2XAlNihmOjB3qhjroJ9DgomEhPrQ
ka49EWmYz7K/sOUj9owc4kFyEPi8bVME1DtEacIGhqZreO668O79pDEJTENgKOwk
72k8w5kRlkfBYXJMBRshdwSsj6srZmKP3C8ciJjp1FJdWZlRaoi7P2272QBxbGVI
oek1A0UQ8Hv7mA7GDgRdZTgBYS0A7xEaKKmituuJz09aOJiIfCOOIXvCCXZHhfDB
BD5gHq3fkHQ+brRd6GXD56SRqhzO1GarQ7IXWpBW4NI+M6sCAwEAAaNmMGQwEgYD
VR0TAQH/BAgwBgEB/wIBATAOBgNVHQ8BAf8EBAMCAYYwHQYDVR0OBBYEFDjbKet2
l3h+aZYAtUxZAyBflviAMB8GA1UdIwQYMBaAFDjbKet2l3h+aZYAtUxZAyBflviA
MA0GCSqGSIb3DQEBCwUAA4IBgQAUPa5Rhw7ohJhR5YdDeb231i5o9s2LhTrErqac
LlFvxNoCm4endOWqPnnHi7ShlYSW8iT/8f8aBdUr2KB4wU5dItusTDwVHCHIj2hz
Z7xkfC9EyK3lB4H8alJoNcZjKDfhNbpu/lmiq2nfLc5bbhsKuKIitj0HgcO2C91F
ew6WEcXfWwG/mDJ/dpZAdHEBeNOvGtJ/jib0RciyDclrXSVYLRAezSw9hi4tJH0J
dfpNmqLP2yzVIOCSUFcemWxhWaeIAcUTP5UO3FwEYPxoyJ38LhMwycvsAoTTMc91
K6jxKQecNXIo+dfgX8E3DkfYMvjmBa9HGP3zBe62lkzmAwKxfnyTnhKGDK+sJNzA
T+rkoPn666Ndli833LVp/HXpPvYHcLbe1IwOPABsd5vzdKK4JgbXGKcFicT6Ngpm
1KW3bTZBjHUqYeS5P6P1sIxmedafvhX8n5UDU0ufCJOehf12R9FL2R/D7Gi+rBlX
MAFZefkzt7dsUsuLDitCGqhabEs=
-----END CERTIFICATE-----
