Certificate:
    Data:
        Version: 3 (0x2)
        Serial Number:
            5a:ef:c7:fd:64:aa:60:82:a8:a3:6d:d5:1a:ea:4a:23:bb:71:cf:ee
        Signature Algorithm: ecdsa-with-SHA384
        Issuer: C=DE, ST=Bavaria, O=Test-Organization, OU=Test-Organization-CA, CN=Test-Organization-Root-CA
        Validity
            Not Before: Jan  1 01:01:01 2023 GMT
            Not After : Jan  1 01:01:01 2033 GMT
        Subject: C=DE, ST=Bavaria, O=Test-Organization, OU=Test-Organization-CA, CN=Test-Organization-Root-CA
        Subject Public Key Info:
            Public Key Algorithm: id-ecPublicKey
                Public-Key: (384 bit)
                pub:
                    04:d2:e7:d2:d9:5a:17:d8:77:2f:d6:a4:a1:95:93:
                    fc:4d:7f:2c:c7:87:c1:98:4f:1d:6b:b5:7b:6b:cc:
                    ba:cd:cf:cb:e9:bd:8c:5f:6b:25:14:0f:28:55:57:
                    e2:7f:6a:86:38:b5:25:00:56:3f:b1:df:20:0c:d9:
                    15:d9:2e:d2:49:8a:15:ba:52:24:f2:5c:45:c5:f9:
                    ac:d0:5c:d4:43:56:48:ad:f0:84:22:e7:7f:8a:64:
                    34:74:10:27:6c:44:12
                ASN1 OID: secp384r1
                NIST CURVE: P-384
        X509v3 extensions:
            X509v3 Basic Constraints: critical
                CA:TRUE, pathlen:1
            X509v3 Key Usage: critical
                Digital Signature, Certificate Sign, CRL Sign
            X509v3 Subject Key Identifier: 
                6F:F1:E4:E7:79:05:25:11:81:70:21:29:F8:35:A2:33:8E:6D:F0:61
            X509v3 Authority Key Identifier: 
                6F:F1:E4:E7:79:05:25:11:81:70:21:29:F8:35:A2:33:8E:6D:F0:61
    Signature Algorithm: ecdsa-with-SHA384
    Signature Value:
        30:65:02:30:5d:51:5f:f2:1e:31:ea:f7:4f:ec:c2:b5:e5:e4:
        3b:df:2b:6b:d0:b2:ca:80:02:07:c3:e9:5b:e1:a7:32:96:94:
        ec:14:2e:60:88:76:3c:dd:d0:32:7d:06:d1:7a:56:a5:02:31:
        00:a5:53:17:16:fc:fb:e5:e3:e9:e3:d5:6c:06:6b:d6:1d:41:
        8d:6a:5c:08:51:49:42:41:71:1c:3a:cb:b1:23:af:63:50:db:
        34:cd:d8:a3:0c:e0:55:76:7f:f2:84:e2:f6
-----BEGIN CERTIFICATE-----
MIICoTCCAiegAwIBAgIUWu/H/WSqYIKoo23VGupKI7txz+4wCgYIKoZIzj0EAwMw
fjELMAkGA1UEBhMCREUxEDAOBgNVBAgMB0JhdmFyaWExGjAYBgNVBAoMEVRlc3Qt
T3JnYW5pemF0aW9uMR0wGwYDVQQLDBRUZXN0LU9yZ2FuaXphdGlvbi1DQTEiMCAG
A1UEAwwZVGVzdC1Pcmdhbml6YXRpb24tUm9vdC1DQTAeFw0yMzAxMDEwMTAxMDFa
Fw0zMzAxMDEwMTAxMDFaMH4xCzAJBgNVBAYTAkRFMRAwDgYDVQQIDAdCYXZhcmlh
MRowGAYDVQQKDBFUZXN0LU9yZ2FuaXphdGlvbjEdMBsGA1UECwwUVGVzdC1Pcmdh
bml6YXRpb24tQ0ExIjAgBgNVBAMMGVRlc3QtT3JnYW5pemF0aW9uLVJvb3QtQ0Ew
djAQBgcqhkjOPQIBBgUrgQQAIgNiAATS59LZWhfYdy/WpKGVk/xNfyzHh8GYTx1r
tXtrzLrNz8vpvYxfayUUDyhVV+J/aoY4tSUAVj+x3yAM2RXZLtJJihW6UiTyXEXF
+azQXNRDVkit8IQi53+KZDR0ECdsRBKjZjBkMBIGA1UdEwEB/wQIMAYBAf8CAQEw
DgYDVR0PAQH/BAQDAgGGMB0GA1UdDgQWBBRv8eTneQUlEYFwISn4NaIzjm3wYTAf
BgNVHSMEGDAWgBRv8eTneQUlEYFwISn4NaIzjm3wYTAKBggqhkjOPQQDAwNoADBl
AjBdUV/yHjHq90/swrXl5DvfK2vQssqAAgfD6VvhpzKWlOwULmCIdjzd0DJ9BtF6
VqUCMQClUxcW/Pvl4+nj1WwGa9YdQY1qXAhRSUJBcRw6y7Ejr2NQ2zTN2KMM4FV2
f/KE4vY=
-----END CERTIFICATE-----
