Certificate:
    Data:
        Version: 3 (0x2)
        Serial Number:
            27:ad:4e:f2:a4:29:1e:21:61:85:56:e8:4a:34:31:f3:5c:c3:68:52
        Signature Algorithm: ecdsa-with-SHA256
        Issuer: C=DE, ST=Bavaria, O=Test-Organization, OU=Test-Organization-CA, CN=Test-Organization-Root-CA
        Validity
            Not Before: Jan  1 01:01:01 2023 GMT
            Not After : Jan  1 01:01:01 2033 GMT
        Subject: C=DE, ST=Bavaria, O=Test-Organization, OU=Test-Organization-CA, CN=Test-Organization-Root-CA
        Subject Public Key Info:
            Public Key Algorithm: id-ecPublicKey
                Public-Key: (256 bit)
                pub:
                    04:87:82:19:36:a6:91:d0:54:54:b3:8a:8b:71:55:
                    86:17:4b:24:36:c3:ec:7e:58:22:13:17:e7:60:1a:
                    9b:79:f7:ac:15:80:5b:26:99:d9:9b:33:38:c8:6c:
                    84:51:f8:4f:4a:45:3c:a3:6b:f8:15:73:96:e2:1e:
                    f4:88:13:cf:e2
                ASN1 OID: secp256k1
        X509v3 extensions:
            X509v3 Basic Constraints: critical
                CA:TRUE, pathlen:1
            X509v3 Key Usage: critical
                Digital Signature, Certificate Sign, CRL Sign
            X509v3 Subject Key Identifier: 
                9F:3E:47:BA:B7:17:C6:60:B2:7C:C6:9E:6C:61:D6:AE:DA:D4:49:1B
            X509v3 Authority Key Identifier: 
                9F:3E:47:BA:B7:17:C6:60:B2:7C:C6:9E:6C:61:D6:AE:DA:D4:49:1B
    Signature Algorithm: ecdsa-with-SHA256
    Signature Value:
        30:44:02:20:78:9f:ab:6b:aa:11:fd:86:13:ea:38:6e:cd:d0:
        1b:7c:eb:20:fe:94:ba:bd:b1:d2:09:4b:5a:f8:c1:30:87:6a:
        02:20:6d:75:68:20:b3:ae:9b:26:6a:a7:57:88:14:06:e1:48:
        a9:2b:81:d4:64:d3:f8:44:ae:ef:3c:e5:24:b0:c9:05
-----BEGIN CERTIFICATE-----
MIICYDCCAgegAwIBAgIUJ61O8qQpHiFhhVboSjQx81zDaFIwCgYIKoZIzj0EAwIw
fjELMAkGA1UEBhMCREUxEDAOBgNVBAgMB0JhdmFyaWExGjAYBgNVBAoMEVRlc3Qt
T3JnYW5pemF0aW9uMR0wGwYDVQQLDBRUZXN0LU9yZ2FuaXphdGlvbi1DQTEiMCAG
A1UEAwwZVGVzdC1Pcmdhbml6YXRpb24tUm9vdC1DQTAeFw0yMzAxMDEwMTAxMDFa
Fw0zMzAxMDEwMTAxMDFaMH4xCzAJBgNVBAYTAkRFMRAwDgYDVQQIDAdCYXZhcmlh
MRowGAYDVQQKDBFUZXN0LU9yZ2FuaXphdGlvbjEdMBsGA1UECwwUVGVzdC1Pcmdh
bml6YXRpb24tQ0ExIjAgBgNVBAMMGVRlc3QtT3JnYW5pemF0aW9uLVJvb3QtQ0Ew
VjAQBgcqhkjOPQIBBgUrgQQACgNCAASHghk2ppHQVFSziotxVYYXSyQ2w+x+WCIT
F+dgGpt596wVgFsmmdmbMzjIbIRR+E9KRTyja/gVc5biHvSIE8/io2YwZDASBgNV
HRMBAf8ECDAGAQH/AgEBMA4GA1UdDwEB/wQEAwIBhjAdBgNVHQ4EFgQUnz5HurcX
xmCyfMaebGHWrtrUSRswHwYDVR0jBBgwFoAUnz5HurcXxmCyfMaebGHWrtrUSRsw
CgYIKoZIzj0EAwIDRwAwRAIgeJ+ra6oR/YYT6jhuzdAbfOsg/pS6vbHSCUta+MEw
h2oCIG11aCCzrpsmaqdXiBQG4UipK4HUZNP4RK7vPOUksMkF
-----END CERTIFICATE-----
