Certificate:
    Data:
        Version: 3 (0x2)
        Serial Number:
            76:0e:99:14:61:a0:dc:ca:08:66:6a:e4:b8:12:39:51:f3:3f:60:e4
        Signature Algorithm: ecdsa-with-SHA256
        Issuer: C=DE, ST=Bavaria, O=Test-Organization, OU=Test-Organization-CA, CN=Test-Organization-Root-CA
        Validity
            Not Before: Jan  1 01:01:01 2023 GMT
            Not After : Jan  1 01:01:01 2033 GMT
        Subject: C=DE, ST=Bavaria, O=Test-Organization, OU=Test-Organization-CA, CN=Test-Organization-Root-CA
        Subject Public Key Info:
            Public Key Algorithm: id-ecPublicKey
                Public-Key: (256 bit)
                pub:
                    04:93:e5:28:b2:4a:2f:4e:f8:65:54:7a:71:91:0d:
                    f9:61:3e:b8:71:0c:91:07:8a:a1:cc:57:ce:e0:7e:
                    e7:71:e5:59:61:1b:2d:0a:e4:d8:17:b3:00:07:4b:
                    93:e7:25:a9:ba:82:49:c0:f1:2b:47:c8:eb:6f:1f:
                    b0:fe:65:95:9f
                ASN1 OID: prime256v1
                NIST CURVE: P-256
        X509v3 extensions:
            X509v3 Basic Constraints: critical
                CA:TRUE, pathlen:1
            X509v3 Key Usage: critical
                Digital Signature, Certificate Sign, CRL Sign
            X509v3 Subject Key Identifier: 
                2D:97:AD:54:C5:1B:65:10:60:A8:12:59:4A:CD:30:51:B6:6C:D6:FA
            X509v3 Authority Key Identifier: 
                2D:97:AD:54:C5:1B:65:10:60:A8:12:59:4A:CD:30:51:B6:6C:D6:FA
    Signature Algorithm: ecdsa-with-SHA256
    Signature Value:
        30:45:02:21:00:84:bc:4e:04:16:5e:a4:1b:0d:fa:d0:d6:f9:
        76:80:f3:a0:38:8e:77:5b:73:09:73:7d:12:89:e6:70:54:36:
        bc:02:20:18:0a:ce:0e:c8:55:ff:92:79:66:89:d3:ce:93:ca:
        85:ba:83:e7:9a:d1:60:35:24:b3:ce:36:e9:4b:88:16:21
-----BEGIN CERTIFICATE-----
MIICZDCCAgqgAwIBAgIUdg6ZFGGg3MoIZmrkuBI5UfM/YOQwCgYIKoZIzj0EAwIw
fjELMAkGA1UEBhMCREUxEDAOBgNVBAgMB0JhdmFyaWExGjAYBgNVBAoMEVRlc3Qt
T3JnYW5pemF0aW9uMR0wGwYDVQQLDBRUZXN0LU9yZ2FuaXphdGlvbi1DQTEiMCAG
A1UEAwwZVGVzdC1Pcmdhbml6YXRpb24tUm9vdC1DQTAeFw0yMzAxMDEwMTAxMDFa
Fw0zMzAxMDEwMTAxMDFaMH4xCzAJBgNVBAYTAkRFMRAwDgYDVQQIDAdCYXZhcmlh
MRowGAYDVQQKDBFUZXN0LU9yZ2FuaXphdGlvbjEdMBsGA1UECwwUVGVzdC1Pcmdh
bml6YXRpb24tQ0ExIjAgBgNVBAMMGVRlc3QtT3JnYW5pemF0aW9uLVJvb3QtQ0Ew
WTATBgcqhkjOPQIBBggqhkjOPQMBBwNCAAST5SiySi9O+GVUenGRDflhPrhxDJEH
iqHMV87gfudx5VlhGy0K5NgXswAHS5PnJam6gknA8StHyOtvH7D+ZZWfo2YwZDAS
BgNVHRMBAf8ECDAGAQH/AgEBMA4GA1UdDwEB/wQEAwIBhjAdBgNVHQ4EFgQULZet
VMUbZRBgqBJZSs0wUbZs1vowHwYDVR0jBBgwFoAULZetVMUbZRBgqBJZSs0wUbZs
1vowCgYIKoZIzj0EAwIDSAAwRQIhAIS8TgQWXqQbDfrQ1vl2gPOgOI53W3MJc30S
ieZwVDa8AiAYCs4OyFX/knlmidPOk8qFuoPnmtFgNSSzzjbpS4gWIQ==
-----END CERTIFICATE-----
