Certificate:
    Data:
        Version: 3 (0x2)
        Serial Number:
            52:75:e0:5f:ae:58:91:f8:ee:60:48:96:9a:ad:14:d8:57:09:a0:a4
        Signature Algorithm: sha512WithRSAEncryption
        Issuer: C=DE, ST=Bavaria, O=Test-Organization, OU=Test-Organization-CA, CN=Test-Organization-Root-CA
        Validity
            Not Before: Jan  1 01:01:01 2023 GMT
            Not After : Jan  1 01:01:01 2033 GMT
        Subject: C=DE, ST=Bavaria, O=Test-Organization, OU=Test-Organization-CA, CN=Test-Organization-Root-CA
        Subject Public Key Info:
            Public Key Algorithm: rsaEncryption
                Public-Key: (4096 bit)
                Modulus:
                    00:b5:ba:f0:93:e3:9e:84:f4:9d:65:91:c8:de:aa:
                    61:d4:51:29:0c:40:2f:09:8f:bb:e0:89:3b:74:bc:
                    fc:5d:5b:af:f9:ae:c8:84:ec:04:90:a5:da:6f:3c:
                    ba:96:92:ac:cc:2e:50:09:3c:1c:8d:57:89:c8:aa:
                    f3:e4:2a:d1:72:b4:28:36:85:a9:85:24:a5:d5:ce:
                    5c:2a:ac:d4:34:3f:38:e9:d6:2d:23:b9:54:03:c7:
                    b1:30:9b:14:3b:b6:32:c4:dd:36:54:1a:d6:98:86:
                    a7:f2:f2:7a:cd:68:c2:53:18:ba:a0:6a:93:f3:cc:
                    8b:a1:f5:c1:a9:40:ce:1e:d7:b7:f4:06:97:b8:3d:
                    ee:de:d5:ff:b4:d0:1f:c7:bd:c0:27:67:0d:97:38:
                    0d:b8:48:85:46:8f:30:fa:48:ec:34:05:fc:ce:10:
                    8e:40:e2:72:6d:62:1a:b9:60:96:83:be:9d:f8:8f:
                    46:90:59:c0:1d:af:9a:4c:1e:5d:12:b2:3f:27:7d:
                    27:af:2d:64:69:b1:84:ef:ef:87:ce:41:0e:d8:ad:
                    c8:ab:b9:10:85:da:13:c6:69:9b:ba:f6:ec:c8:0e:
                    fa:1e:52:c6:7f:4b:a3:74:a0:ab:69:d0:b0:6c:9d:
                    e5:50:11:09:b9:65:55:0c:fc:c2:51:4e:53:04:ce:
                    f7:fc:01:c6:91:d2:de:29:75:1e:54:2c:32:7a:4b:
                    b6:80:41:44:bc:5d:8b:ef:4a:f5:ba:74:e8:87:26:
                    f6:7e:5a:a2:f1:7f:3b:52:a2:78:81:ba:7b:98:48:
                    a8:c2:6f:a6:22:00:03:7a:b8:be:93:82:bb:71:54:
                    22:ee:c5:a5:cf:c8:4d:7b:e9:e6:6c:40:1e:63:95:
                    55:85:ca:5b:36:b6:a0:ad:33:f9:55:08:3f:5e:c0:
                    54:d1:6d:7e:9a:00:5e:ec:c3:29:09:eb:02:42:14:
                    78:f9:19:03:8d:8d:d8:3c:5f:85:58:2a:8e:2d:fe:
                    fd:65:b3:be:ef:50:46:8c:5d:12:05:43:ee:fd:86:
                    14:b0:9e:81:e2:3b:75:03:5f:b8:36:3c:62:e2:aa:
                    92:47:22:b3:57:dd:5a:6e:87:b4:55:10:3d:8e:70:
                    bc:51:f9:fb:43:93:8a:63:02:1e:a9:8d:a2:a8:ce:
                    91:be:e2:c9:09:81:73:59:9f:53:38:3f:2d:72:b1:
                    2a:3d:e5:0c:44:16:4e:95:40:17:8e:c4:f2:c6:3b:
                    02:13:6e:df:3a:ac:ba:58:ac:09:f7:cd:e7:79:ca:
                    58:11:dd:c6:17:8a:2f:31:1f:d2:89:b3:11:1c:a4:
                    bd:07:81:29:64:80:83:f0:fb:7b:27:32:f3:db:0d:
                    e4:89:c1
                Exponent: 65537 (0x10001)
        X509v3 extensions:
            X509v3 Basic Constraints: critical
                CA:TRUE, pathlen:1
            X509v3 Key Usage: critical
                Digital Signature, Certificate Sign, CRL Sign
            X509v3 Subject Key Identifier: 
                5C:9E:EE:15:D5:50:6A:21:2F:4B:80:4D:E3:B5:8F:9D:39:BA:3B:FA
            X509v3 Authority Key Identifier: 
                5C:9E:EE:15:D5:50:6A:21:2F:4B:80:4D:E3:B5:8F:9D:39:BA:3B:FA
    Signature Algorithm: sha512WithRSAEncryption
    Signature Value:
        1d:4b:b9:d8:ba:78:3e:76:02:dd:cf:7b:38:be:09:e3:3c:38:
        01:6f:de:c3:df:30:1f:4e:8b:e0:51:d8:8b:cb:a9:20:e3:6b:
        f3:f7:6d:ed:88:61:7a:a0:48:27:5c:13:5f:5f:b1:9c:52:f3:
        a2:c2:fe:fe:d4:f3:58:34:2f:a3:52:1d:8b:3e:d5:78:a1:f8:
        9d:e3:7c:81:20:98:b4:ae:fd:c6:ca:c3:c3:22:13:00:ab:74:
        83:8a:fa:18:4d:e6:21:20:6b:47:ee:6d:06:be:77:3a:f0:b9:
        ee:1d:d4:1c:ce:d5:59:5b:89:4f:2c:c3:e2:ed:3b:ae:7b:2b:
        bc:c3:d8:e2:50:40:10:4d:ef:ea:39:3e:d9:e9:b0:f6:cc:3a:
        ad:31:97:50:81:fb:c7:f7:32:4e:91:2d:c7:4b:de:c7:1b:2b:
        ae:1a:63:02:dd:f7:01:34:77:0c:34:2e:0a:eb:21:72:22:02:
        77:22:8a:26:2e:57:17:a9:48:c0:eb:5d:d9:14:62:41:57:4a:
        c4:cf:d0:c8:bc:27:cc:f2:ab:af:4d:32:0e:f0:64:c2:3c:f1:
        48:be:e4:c9:7f:83:d2:83:c7:59:27:9a:35:69:2b:e0:20:02:
        0d:9c:4d:50:8b:62:bd:de:c1:3f:5d:22:d8:0d:6f:38:67:c4:
        82:8f:e1:99:5a:b2:9a:eb:16:93:9b:6a:b0:8f:6c:a0:28:58:
        4c:18:68:3e:a5:92:3c:b8:d2:ff:7f:b4:ba:4b:e5:f3:31:5a:
        76:b4:07:ca:dc:86:75:c1:37:80:a4:bf:b1:6b:d9:8e:d5:5d:
        4a:72:3d:1f:ef:33:1a:74:e8:93:e6:3d:71:1c:64:a9:06:78:
        32:e3:58:b5:90:6c:f2:98:34:ea:ec:0c:79:5e:e6:a9:71:8d:
        69:a4:37:e0:ac:80:ec:c4:a5:f0:01:64:bc:a9:82:0b:35:ff:
        58:cd:1f:cf:b6:98:d9:a0:05:86:6f:2b:f2:8c:c9:6c:7f:30:
        14:c7:57:c2:fa:3a:0f:15:c6:38:08:34:76:04:4e:e5:d8:00:
        d5:d2:01:b9:af:22:f1:98:e9:e7:ab:78:40:bf:fe:8d:b6:4c:
        88:a5:f1:3d:45:48:43:33:07:0f:ed:1f:71:07:e1:2a:09:24:
        42:21:0a:0a:a1:ce:2c:2f:09:55:84:0e:1f:8e:9c:16:d8:81:
        1e:65:12:e6:7e:d3:b0:ae:67:66:3f:11:ff:57:19:46:2e:2e:
        de:55:31:67:43:88:e6:18:ce:5e:f1:b1:6c:88:6a:6e:5b:38:
        98:db:22:bc:a5:b1:cc:8f:3c:a4:d6:1a:ec:63:12:38:39:f9:
        a0:b6:1d:77:00:a1:8f:78
-----BEGIN CERTIFICATE-----
MIIF8DCCA9igAwIBAgIUUnXgX65YkfjuYEiWmq0U2FcJoKQwDQYJKoZIhvcNAQEN
BQAwfjELMAkGA1UEBhMCREUxEDAOBgNVBAgMB0JhdmFyaWExGjAYBgNVBAoMEVRl
c3QtT3JnYW5pemF0aW9uMR0wGwYDVQQLDBRUZXN0LU9yZ2FuaXphdGlvbi1DQTEi
MCAGA1UEAwwZVGVzdC1Pcmdhbml6YXRpb24tUm9vdC1DQTAeFw0yMzAxMDEwMTAx
MDFaFw0zMzAxMDEwMTAxMDFaMH4xCzAJBgNVBAYTAkRFMRAwDgYDVQQIDAdCYXZh
cmlhMRowGAYDVQQKDBFUZXN0LU9yZ2FuaXphdGlvbjEdMBsGA1UECwwUVGVzdC1P
cmdhbml6YXRpb24tQ0ExIjAgBgNVBAMMGVRlc3QtT3JnYW5pemF0aW9uLVJvb3Qt
Q0EwggIiMA0GCSqGSIb3DQEBAQUAA4ICDwAwggIKAoICAQC1uvCT456E9J1lkcje
qmHUUSkMQC8Jj7vgiTt0vPxdW6/5rsiE7ASQpdpvPLqWkqzMLlAJPByNV4nIqvPk
KtFytCg2hamFJKXVzlwqrNQ0Pzjp1i0juVQDx7EwmxQ7tjLE3TZUGtaYhqfy8nrN
aMJTGLqgapPzzIuh9cGpQM4e17f0Bpe4Pe7e1f+00B/HvcAnZw2XOA24SIVGjzD6
SOw0BfzOEI5A4nJtYhq5YJaDvp34j0aQWcAdr5pMHl0Ssj8nfSevLWRpsYTv74fO
QQ7YrciruRCF2hPGaZu69uzIDvoeUsZ/S6N0oKtp0LBsneVQEQm5ZVUM/MJRTlME
zvf8AcaR0t4pdR5ULDJ6S7aAQUS8XYvvSvW6dOiHJvZ+WqLxfztSoniBunuYSKjC
b6YiAAN6uL6TgrtxVCLuxaXPyE176eZsQB5jlVWFyls2tqCtM/lVCD9ewFTRbX6a
AF7swykJ6wJCFHj5GQONjdg8X4VYKo4t/v1ls77vUEaMXRIFQ+79hhSwnoHiO3UD
X7g2PGLiqpJHIrNX3Vpuh7RVED2OcLxR+ftDk4pjAh6pjaKozpG+4skJgXNZn1M4
Py1ysSo95QxEFk6VQBeOxPLGOwITbt86rLpYrAn3zed5ylgR3cYXii8xH9KJsxEc
pL0HgSlkgIPw+3snMvPbDeSJwQIDAQABo2YwZDASBgNVHRMBAf8ECDAGAQH/AgEB
MA4GA1UdDwEB/wQEAwIBhjAdBgNVHQ4EFgQUXJ7uFdVQaiEvS4BN47WPnTm6O/ow
HwYDVR0jBBgwFoAUXJ7uFdVQaiEvS4BN47WPnTm6O/owDQYJKoZIhvcNAQENBQAD
ggIBAB1Ludi6eD52At3Pezi+CeM8OAFv3sPfMB9Oi+BR2IvLqSDja/P3be2IYXqg
SCdcE19fsZxS86LC/v7U81g0L6NSHYs+1Xih+J3jfIEgmLSu/cbKw8MiEwCrdIOK
+hhN5iEga0fubQa+dzrwue4d1BzO1VlbiU8sw+LtO657K7zD2OJQQBBN7+o5Ptnp
sPbMOq0xl1CB+8f3Mk6RLcdL3scbK64aYwLd9wE0dww0LgrrIXIiAnciiiYuVxep
SMDrXdkUYkFXSsTP0Mi8J8zyq69NMg7wZMI88Ui+5Ml/g9KDx1knmjVpK+AgAg2c
TVCLYr3ewT9dItgNbzhnxIKP4ZlasprrFpObarCPbKAoWEwYaD6lkjy40v9/tLpL
5fMxWna0B8rchnXBN4Ckv7Fr2Y7VXUpyPR/vMxp06JPmPXEcZKkGeDLjWLWQbPKY
NOrsDHle5qlxjWmkN+CsgOzEpfABZLypggs1/1jNH8+2mNmgBYZvK/KMyWx/MBTH
V8L6Og8VxjgINHYETuXYANXSAbmvIvGY6eereEC//o22TIil8T1FSEMzBw/tH3EH
4SoJJEIhCgqhziwvCVWEDh+OnBbYgR5lEuZ+07CuZ2Y/Ef9XGUYuLt5VMWdDiOYY
zl7xsWyIam5bOJjbIrylscyPPKTWGuxjEjg5+aC2HXcAoY94
-----END CERTIFICATE-----
