Certificate:
    Data:
        Version: 3 (0x2)
        Serial Number:
            66:fe:bc:ec:02:8c:0d:f8:41:cc:f8:6d:62:a6:3c:e3:56:6c:85:fd
        Signature Algorithm: ecdsa-with-SHA512
        Issuer: C=DE, ST=Bavaria, O=Test-Organization, OU=Test-Organization-CA, CN=Test-Organization-Root-CA
        Validity
            Not Before: Jan  1 01:01:01 2023 GMT
            Not After : Jan  1 01:01:01 2033 GMT
        Subject: C=DE, ST=Bavaria, O=Test-Organization, OU=Test-Organization-CA, CN=Test-Organization-Root-CA
        Subject Public Key Info:
            Public Key Algorithm: id-ecPublicKey
                Public-Key: (384 bit)
                pub:
                    04:e2:74:97:db:8b:7e:40:9b:eb:97:99:c6:0a:46:
                    c3:8e:a2:2e:d8:aa:aa:50:00:8f:91:23:c8:4c:9f:
                    ae:a5:da:a5:5a:4c:35:91:94:02:3c:ee:ef:62:c3:
                    5a:6f:46:81:87:de:73:6b:b2:28:a0:f2:70:b1:0e:
                    be:e6:3f:38:ad:02:63:1e:06:41:41:65:a4:c2:14:
                    1b:2d:55:92:03:82:bb:f7:a1:98:9f:c1:1b:c8:69:
                    46:3c:3e:9b:fb:9e:d8
                ASN1 OID: secp384r1
                NIST CURVE: P-384
        X509v3 extensions:
            X509v3 Basic Constraints: critical
                CA:TRUE, pathlen:1
            X509v3 Key Usage: critical
                Digital Signature, Certificate Sign, CRL Sign
            X509v3 Subject Key Identifier: 
                E2:07:92:7E:3B:CD:9F:19:55:BC:A1:86:CA:23:69:71:47:DC:AA:7E
            X509v3 Authority Key Identifier: 
                E2:07:92:7E:3B:CD:9F:19:55:BC:A1:86:CA:23:69:71:47:DC:AA:7E
    Signature Algorithm: ecdsa-with-SHA512
    Signature Value:
        30:65:02:30:1a:69:73:04:e4:22:f4:47:ae:7f:84:3f:9f:e5:
        99:f9:cd:16:f3:b0:8c:35:c3:cf:04:9e:48:08:c3:8e:24:45:
        de:cc:e4:dd:07:39:18:84:1a:1f:ba:8e:5b:79:3e:c5:02:31:
        00:c4:8b:0a:f2:d9:70:1c:2c:56:6f:c4:b7:c2:9a:26:b8:42:
        86:ec:fc:49:1a:65:54:35:7c:27:2c:ea:3d:d9:fe:69:ec:95:
        42:72:a1:b6:88:90:33:da:1b:93:0b:41:60
-----BEGIN CERTIFICATE-----
MIICoTCCAiegAwIBAgIUZv687AKMDfhBzPhtYqY841Zshf0wCgYIKoZIzj0EAwQw
fjELMAkGA1UEBhMCREUxEDAOBgNVBAgMB0JhdmFyaWExGjAYBgNVBAoMEVRlc3Qt
T3JnYW5pemF0aW9uMR0wGwYDVQQLDBRUZXN0LU9yZ2FuaXphdGlvbi1DQTEiMCAG
A1UEAwwZVGVzdC1Pcmdhbml6YXRpb24tUm9vdC1DQTAeFw0yMzAxMDEwMTAxMDFa
Fw0zMzAxMDEwMTAxMDFaMH4xCzAJBgNVBAYTAkRFMRAwDgYDVQQIDAdCYXZhcmlh
MRowGAYDVQQKDBFUZXN0LU9yZ2FuaXphdGlvbjEdMBsGA1UECwwUVGVzdC1Pcmdh
bml6YXRpb24tQ0ExIjAgBgNVBAMMGVRlc3QtT3JnYW5pemF0aW9uLVJvb3QtQ0Ew
djAQBgcqhkjOPQIBBgUrgQQAIgNiAATidJfbi35Am+uXmcYKRsOOoi7YqqpQAI+R
I8hMn66l2qVaTDWRlAI87u9iw1pvRoGH3nNrsiig8nCxDr7mPzitAmMeBkFBZaTC
FBstVZIDgrv3oZifwRvIaUY8Ppv7ntijZjBkMBIGA1UdEwEB/wQIMAYBAf8CAQEw
DgYDVR0PAQH/BAQDAgGGMB0GA1UdDgQWBBTiB5J+O82fGVW8oYbKI2lxR9yqfjAf
BgNVHSMEGDAWgBTiB5J+O82fGVW8oYbKI2lxR9yqfjAKBggqhkjOPQQDBANoADBl
AjAaaXME5CL0R65/hD+f5Zn5zRbzsIw1w88EnkgIw44kRd7M5N0HORiEGh+6jlt5
PsUCMQDEiwry2XAcLFZvxLfCmia4Qobs/EkaZVQ1fCcs6j3Z/mnslUJyobaIkDPa
G5MLQWA=
-----END CERTIFICATE-----
